; Function Attrs: mustprogress nofree norecurse nosync nounwind willreturn memory(none) uwtable
define dso_local noundef zeroext i1 @_ZN4llvm3X867isPSLLWEj(i32 noundef %0) local_unnamed_addr #0 {
  switch i32 %0, label %2 [
    i32 2444, label %3
    i32 2445, label %3
    i32 2446, label %3
    i32 3338, label %3
    i32 3339, label %3
    i32 3340, label %3
  ]

2:                                                ; preds = %1
  br label %3

3:                                                ; preds = %1, %1, %1, %1, %1, %1, %2
  %.0 = phi i1 [ false, %2 ], [ true, %1 ], [ true, %1 ], [ true, %1 ], [ true, %1 ], [ true, %1 ], [ true, %1 ]
  ret i1 %.0
}